; Function Attrs: mustprogress nounwind uwtable
define void @_ZN8WasmEdge4MMapD2Ev(ptr noundef nonnull align 8 captures(none) dereferenceable(8) %0) unnamed_addr #0 align 2 personality ptr @__gxx_personality_v0 {
  %2 = load ptr, ptr %0, align 8
  %.not = icmp eq ptr %2, null
  br i1 %.not, label %18, label %3

3:                                                ; preds = %1
  store ptr null, ptr %0, align 8
  %4 = load ptr, ptr %2, align 8
  %.not.i.i.i = icmp eq ptr %4, inttoptr (i64 -1 to ptr)
  br i1 %.not.i.i.i, label %9, label %5

5:                                                ; preds = %3
  %6 = getelementptr inbounds nuw i8, ptr %2, i64 16
  %7 = load i64, ptr %6, align 8
  %8 = tail call i32 @munmap(ptr noundef %4, i64 noundef %7) #13
  br label %9

9:                                                ; preds = %5, %3
  %10 = getelementptr inbounds nuw i8, ptr %2, i64 8
  %11 = load i32, ptr %10, align 8
  %12 = icmp sgt i32 %11, -1
  br i1 %12, label %13, label %_ZNSt10unique_ptrIN8WasmEdge12_GLOBAL__N_19ImplementESt14default_deleteIS2_EED2Ev.exit

13:                                               ; preds = %9
  %14 = invoke i32 @close(i32 noundef %11)
          to label %_ZNSt10unique_ptrIN8WasmEdge12_GLOBAL__N_19ImplementESt14default_deleteIS2_EED2Ev.exit unwind label %15

15:                                               ; preds = %13
  %16 = landingpad { ptr, i32 }
          catch ptr null
  %17 = extractvalue { ptr, i32 } %16, 0
  tail call void @__clang_call_terminate(ptr %17) #14
  unreachable

_ZNSt10unique_ptrIN8WasmEdge12_GLOBAL__N_19ImplementESt14default_deleteIS2_EED2Ev.exit: ; preds = %9, %13
  tail call void @_ZdlPvm(ptr noundef nonnull %2, i64 noundef 24) #15
  br label %18

18:                                               ; preds = %1, %_ZNSt10unique_ptrIN8WasmEdge12_GLOBAL__N_19ImplementESt14default_deleteIS2_EED2Ev.exit
  ret void
}